target datalayout = "e-m:e-p270:32:32-p271:32:32-p272:64:64-i64:64-i128:128-f80:128-n8:16:32:64-S128"
target triple = "x86_64-pc-linux-gnu"

%struct.StratumTableRecord = type { ptr, i32, i32 }
%struct.BackendGlobalData = type <{ ptr, ptr, i8, i8, i8, i8, i8, i8, i8, i8, i8, [3 x i8], i32, ptr, ptr, ptr, ptr, ptr, ptr, ptr, ptr, ptr, ptr, ptr, ptr, ptr, i32, %struct.jvmtiCapabilities, i8, [3 x i8], %struct.jvmtiEventCallbacks, ptr, ptr, ptr, ptr, ptr, ptr, ptr, i32, [4 x i8], ptr, i64, i32, [4 x i8], ptr, i32, i32, i8, i8, [6 x i8] }>
%struct.jvmtiCapabilities = type { i64, i64 }
%struct.jvmtiEventCallbacks = type { ptr, ptr, ptr, ptr, ptr, ptr, ptr, ptr, ptr, ptr, ptr, ptr, ptr, ptr, ptr, ptr, ptr, ptr, ptr, ptr, ptr, ptr, ptr, ptr, ptr, ptr, ptr, ptr, ptr, ptr, ptr, ptr, ptr, ptr, ptr, ptr, ptr, ptr, ptr }
%struct.jvmtiLineNumberEntry = type { i64, i32 }
%struct.LineTableRecord = type { i32, i32, i32, i32, i32, i32 }

@globalDefaultStratumId = internal global ptr null, align 8
@baseStratumIndex = internal global i32 0, align 4
@gdata = external global ptr, align 8
@.str = private unnamed_addr constant [5 x i8] c"MISC\00", align 1
@.str.1 = private unnamed_addr constant [46 x i8] c"src/jdk.jdwp.agent/share/native/libjdwp/SDE.c\00", align 1
@.str.2 = private unnamed_addr constant [34 x i8] c"SDE is re-ordering the line table\00", align 1
@lineTable = internal global ptr null, align 8
@stratumTable = internal global ptr null, align 8
@sourceMapIsValid = internal global i8 0, align 1

; Function Attrs: nounwind uwtable
define internal i32 @stiLineNumber(i32 noundef %0, i32 noundef %1, i32 noundef %2) #0 {
  %4 = alloca i32, align 4
  %5 = alloca i32, align 4
  %6 = alloca i32, align 4
  store i32 %0, ptr %4, align 4
  store i32 %1, ptr %5, align 4
  store i32 %2, ptr %6, align 4
  %7 = load ptr, ptr @lineTable, align 8
  %8 = load i32, ptr %5, align 4
  %9 = sext i32 %8 to i64
  %10 = getelementptr inbounds %struct.LineTableRecord, ptr %7, i64 %9
  %11 = getelementptr inbounds %struct.LineTableRecord, ptr %10, i32 0, i32 3
  %12 = load i32, ptr %11, align 4
  %13 = load i32, ptr %6, align 4
  %14 = load ptr, ptr @lineTable, align 8
  %15 = load i32, ptr %5, align 4
  %16 = sext i32 %15 to i64
  %17 = getelementptr inbounds %struct.LineTableRecord, ptr %14, i64 %16
  %18 = getelementptr inbounds %struct.LineTableRecord, ptr %17, i32 0, i32 0
  %19 = load i32, ptr %18, align 4
  %20 = sub nsw i32 %13, %19
  %21 = load ptr, ptr @lineTable, align 8
  %22 = load i32, ptr %5, align 4
  %23 = sext i32 %22 to i64
  %24 = getelementptr inbounds %struct.LineTableRecord, ptr %21, i64 %23
  %25 = getelementptr inbounds %struct.LineTableRecord, ptr %24, i32 0, i32 2
  %26 = load i32, ptr %25, align 4
  %27 = sdiv i32 %20, %26
  %28 = add nsw i32 %12, %27
  ret i32 %28
}

; Function Attrs: nounwind uwtable
define internal i32 @stiLineTableIndex(i32 noundef %0, i32 noundef %1) #0 {
  %3 = alloca i32, align 4
  %4 = alloca i32, align 4
  %5 = alloca i32, align 4
  %6 = alloca i32, align 4
  %7 = alloca i32, align 4
  %8 = alloca i32, align 4
  store i32 %0, ptr %4, align 4
  store i32 %1, ptr %5, align 4
  %9 = load ptr, ptr @stratumTable, align 8
  %10 = load i32, ptr %4, align 4
  %11 = sext i32 %10 to i64
  %12 = getelementptr inbounds %struct.StratumTableRecord, ptr %9, i64 %11
  %13 = getelementptr inbounds %struct.StratumTableRecord, ptr %12, i32 0, i32 2
  %14 = load i32, ptr %13, align 4
  store i32 %14, ptr %7, align 4
  %15 = load ptr, ptr @stratumTable, align 8
  %16 = load i32, ptr %4, align 4
  %17 = add nsw i32 %16, 1
  %18 = sext i32 %17 to i64
  %19 = getelementptr inbounds %struct.StratumTableRecord, ptr %15, i64 %18
  %20 = getelementptr inbounds %struct.StratumTableRecord, ptr %19, i32 0, i32 2
  %21 = load i32, ptr %20, align 4
  store i32 %21, ptr %8, align 4
  %22 = load i32, ptr %7, align 4
  store i32 %22, ptr %6, align 4
  br label %23

23:                                               ; preds = %48, %2
  %24 = load i32, ptr %6, align 4
  %25 = load i32, ptr %8, align 4
  %26 = icmp slt i32 %24, %25
  br i1 %26, label %27, label %51

27:                                               ; preds = %23
  %28 = load i32, ptr %5, align 4
  %29 = load ptr, ptr @lineTable, align 8
  %30 = load i32, ptr %6, align 4
  %31 = sext i32 %30 to i64
  %32 = getelementptr inbounds %struct.LineTableRecord, ptr %29, i64 %31
  %33 = getelementptr inbounds %struct.LineTableRecord, ptr %32, i32 0, i32 0
  %34 = load i32, ptr %33, align 4
  %35 = icmp sge i32 %28, %34
  br i1 %35, label %36, label %47

36:                                               ; preds = %27
  %37 = load i32, ptr %5, align 4
  %38 = load ptr, ptr @lineTable, align 8
  %39 = load i32, ptr %6, align 4
  %40 = sext i32 %39 to i64
  %41 = getelementptr inbounds %struct.LineTableRecord, ptr %38, i64 %40
  %42 = getelementptr inbounds %struct.LineTableRecord, ptr %41, i32 0, i32 1
  %43 = load i32, ptr %42, align 4
  %44 = icmp sle i32 %37, %43
  br i1 %44, label %45, label %47

45:                                               ; preds = %36
  %46 = load i32, ptr %6, align 4
  store i32 %46, ptr %3, align 4
  br label %52

47:                                               ; preds = %36, %27
  br label %48

48:                                               ; preds = %47
  %49 = load i32, ptr %6, align 4
  %50 = add nsw i32 %49, 1
  store i32 %50, ptr %6, align 4
  br label %23, !llvm.loop !11

51:                                               ; preds = %23
  store i32 -1, ptr %3, align 4
  br label %52

52:                                               ; preds = %51, %45
  %53 = load i32, ptr %3, align 4
  ret i32 %53
}

; Function Attrs: nounwind uwtable
define internal zeroext i8 @isValid() #0 {
  %1 = load i8, ptr @sourceMapIsValid, align 1
  ret i8 %1
}

; Function Attrs: nounwind uwtable
define hidden void @convertLineNumberTable(ptr noundef %0, ptr noundef %1, ptr noundef %2, ptr noundef %3) #0 {
  %5 = alloca ptr, align 8
  %6 = alloca ptr, align 8
  %7 = alloca ptr, align 8
  %8 = alloca ptr, align 8
  %9 = alloca ptr, align 8
  %10 = alloca ptr, align 8
  %11 = alloca i32, align 4
  %12 = alloca i32, align 4
  %13 = alloca i32, align 4
  %14 = alloca i32, align 4
  %15 = alloca i32, align 4
  %16 = alloca i32, align 4
  %17 = alloca i32, align 4
  store ptr %0, ptr %5, align 8
  store ptr %1, ptr %6, align 8
  store ptr %2, ptr %7, align 8
  store ptr %3, ptr %8, align 8
  %18 = load ptr, ptr %8, align 8
  %19 = load ptr, ptr %18, align 8
  store ptr %19, ptr %9, align 8
  %20 = load ptr, ptr %8, align 8
  %21 = load ptr, ptr %20, align 8
  store ptr %21, ptr %10, align 8
  %22 = load ptr, ptr %7, align 8
  %23 = load i32, ptr %22, align 4
  store i32 %23, ptr %11, align 4
  store i32 0, ptr %12, align 4
  %24 = load i32, ptr %11, align 4
  %25 = icmp slt i32 %24, 0
  br i1 %25, label %26, label %27

26:                                               ; preds = %4
  br label %110

27:                                               ; preds = %4
  %28 = load ptr, ptr %5, align 8
  %29 = load ptr, ptr %6, align 8
  call void @loadDebugInfo(ptr noundef %28, ptr noundef %29)
  %30 = call zeroext i8 @isValid()
  %31 = icmp ne i8 %30, 0
  br i1 %31, label %33, label %32

32:                                               ; preds = %27
  br label %110

33:                                               ; preds = %27
  %34 = load ptr, ptr @globalDefaultStratumId, align 8
  %35 = call i32 @stratumTableIndex(ptr noundef %34)
  store i32 %35, ptr %13, align 4
  %36 = load i32, ptr %13, align 4
  %37 = load i32, ptr @baseStratumIndex, align 4
  %38 = icmp eq i32 %36, %37
  br i1 %38, label %42, label %39

39:                                               ; preds = %33
  %40 = load i32, ptr %13, align 4
  %41 = icmp slt i32 %40, 0
  br i1 %41, label %42, label %43

42:                                               ; preds = %39, %33
  br label %110

43:                                               ; preds = %39
  %44 = load ptr, ptr @gdata, align 8
  %45 = getelementptr inbounds %struct.BackendGlobalData, ptr %44, i32 0, i32 38
  %46 = load i32, ptr %45, align 8
  %47 = and i32 %46, 8
  %48 = icmp ne i32 %47, 0
  br i1 %48, label %49, label %50

49:                                               ; preds = %43
  call void @log_message_begin(ptr noundef @.str, ptr noundef @.str.1, i32 noundef 263)
  call void (ptr, ...) @log_message_end(ptr noundef @.str.2)
  br label %51

50:                                               ; preds = %43
  br label %51

51:                                               ; preds = %50, %49
  br label %52

52:                                               ; preds = %97, %51
  %53 = load i32, ptr %11, align 4
  %54 = add nsw i32 %53, -1
  store i32 %54, ptr %11, align 4
  %55 = icmp sgt i32 %53, 0
  br i1 %55, label %56, label %100

56:                                               ; preds = %52
  %57 = load ptr, ptr %9, align 8
  %58 = getelementptr inbounds %struct.jvmtiLineNumberEntry, ptr %57, i32 0, i32 1
  %59 = load i32, ptr %58, align 8
  store i32 %59, ptr %14, align 4
  %60 = load i32, ptr %13, align 4
  %61 = load i32, ptr %14, align 4
  %62 = call i32 @stiLineTableIndex(i32 noundef %60, i32 noundef %61)
  store i32 %62, ptr %15, align 4
  %63 = load i32, ptr %15, align 4
  %64 = icmp sge i32 %63, 0
  br i1 %64, label %65, label %96

65:                                               ; preds = %56
  %66 = load ptr, ptr @lineTable, align 8
  %67 = load i32, ptr %15, align 4
  %68 = sext i32 %67 to i64
  %69 = getelementptr inbounds %struct.LineTableRecord, ptr %66, i64 %68
  %70 = getelementptr inbounds %struct.LineTableRecord, ptr %69, i32 0, i32 5
  %71 = load i32, ptr %70, align 4
  store i32 %71, ptr %16, align 4
  %72 = load i32, ptr %13, align 4
  %73 = load i32, ptr %15, align 4
  %74 = load i32, ptr %14, align 4
  %75 = call i32 @stiLineNumber(i32 noundef %72, i32 noundef %73, i32 noundef %74)
  store i32 %75, ptr %17, align 4
  %76 = load i32, ptr %16, align 4
  %77 = shl i32 %76, 16
  %78 = load i32, ptr %17, align 4
  %79 = add nsw i32 %78, %77
  store i32 %79, ptr %17, align 4
  %80 = load i32, ptr %17, align 4
  %81 = load i32, ptr %12, align 4
  %82 = icmp ne i32 %80, %81
  br i1 %82, label %83, label %95

83:                                               ; preds = %65
  %84 = load i32, ptr %17, align 4
  store i32 %84, ptr %12, align 4
  %85 = load ptr, ptr %9, align 8
  %86 = getelementptr inbounds %struct.jvmtiLineNumberEntry, ptr %85, i32 0, i32 0
  %87 = load i64, ptr %86, align 8
  %88 = load ptr, ptr %10, align 8
  %89 = getelementptr inbounds %struct.jvmtiLineNumberEntry, ptr %88, i32 0, i32 0
  store i64 %87, ptr %89, align 8
  %90 = load i32, ptr %17, align 4
  %91 = load ptr, ptr %10, align 8
  %92 = getelementptr inbounds %struct.jvmtiLineNumberEntry, ptr %91, i32 0, i32 1
  store i32 %90, ptr %92, align 8
  %93 = load ptr, ptr %10, align 8
  %94 = getelementptr inbounds %struct.jvmtiLineNumberEntry, ptr %93, i32 1
  store ptr %94, ptr %10, align 8
  br label %95

95:                                               ; preds = %83, %65
  br label %96

96:                                               ; preds = %95, %56
  br label %97

97:                                               ; preds = %96
  %98 = load ptr, ptr %9, align 8
  %99 = getelementptr inbounds %struct.jvmtiLineNumberEntry, ptr %98, i32 1
  store ptr %99, ptr %9, align 8
  br label %52, !llvm.loop !9

100:                                              ; preds = %52
  %101 = load ptr, ptr %10, align 8
  %102 = load ptr, ptr %8, align 8
  %103 = load ptr, ptr %102, align 8
  %104 = ptrtoint ptr %101 to i64
  %105 = ptrtoint ptr %103 to i64
  %106 = sub i64 %104, %105
  %107 = sdiv exact i64 %106, 16
  %108 = trunc i64 %107 to i32
  %109 = load ptr, ptr %7, align 8
  store i32 %108, ptr %109, align 4
  br label %110

110:                                              ; preds = %100, %42, %32, %26
  ret void
}