; Function Attrs: nounwind uwtable
define hidden void @convertLineNumberTable(ptr noundef %0, ptr noundef %1, ptr nocapture noundef %2, ptr nocapture noundef readonly %3) local_unnamed_addr #0 {
  %5 = load ptr, ptr %3, align 8
  %6 = load i32, ptr %2, align 4
  %7 = icmp slt i32 %6, 0
  br i1 %7, label %73, label %8

8:                                                ; preds = %4
  tail call fastcc void @loadDebugInfo(ptr noundef %0, ptr noundef %1)
  %.b.i = load i1, ptr @sourceMapIsValid, align 1
  br i1 %.b.i, label %9, label %73

9:                                                ; preds = %8
  %10 = load ptr, ptr @globalDefaultStratumId, align 8
  %11 = tail call fastcc i32 @stratumTableIndex(ptr noundef %10)
  %12 = load i32, ptr @baseStratumIndex, align 4
  %13 = icmp eq i32 %11, %12
  %14 = icmp slt i32 %11, 0
  %or.cond = or i1 %14, %13
  br i1 %or.cond, label %73, label %15

15:                                               ; preds = %9
  %16 = load ptr, ptr @gdata, align 8
  %17 = getelementptr inbounds i8, ptr %16, i64 528
  %18 = load i32, ptr %17, align 8
  %19 = and i32 %18, 8
  %.not39 = icmp eq i32 %19, 0
  br i1 %.not39, label %21, label %20

20:                                               ; preds = %15
  tail call void @log_message_begin(ptr noundef nonnull @.str, ptr noundef nonnull @.str.1, i32 noundef 263) #11
  tail call void (ptr, ...) @log_message_end(ptr noundef nonnull @.str.2) #11
  br label %21

21:                                               ; preds = %15, %20
  %.not = icmp eq i32 %6, 0
  br i1 %.not, label %._crit_edge, label %.lr.ph

.lr.ph:                                           ; preds = %21
  %22 = load ptr, ptr @stratumTable, align 8
  %23 = zext nneg i32 %11 to i64
  %24 = getelementptr inbounds %struct.StratumTableRecord, ptr %22, i64 %23, i32 2
  %25 = getelementptr %struct.StratumTableRecord, ptr %22, i64 %23
  %26 = getelementptr i8, ptr %25, i64 28
  %27 = load ptr, ptr @lineTable, align 8
  %28 = load i32, ptr %24, align 4
  %29 = load i32, ptr %26, align 4
  %30 = icmp slt i32 %28, %29
  br i1 %30, label %.lr.ph.split, label %._crit_edge

.lr.ph.split:                                     ; preds = %.lr.ph, %stiLineTableIndex.exit.thread
  %.in = phi i32 [ %31, %stiLineTableIndex.exit.thread ], [ %6, %.lr.ph ]
  %.045 = phi ptr [ %65, %stiLineTableIndex.exit.thread ], [ %5, %.lr.ph ]
  %.03144 = phi ptr [ %.1, %stiLineTableIndex.exit.thread ], [ %5, %.lr.ph ]
  %.03343 = phi i32 [ %.134, %stiLineTableIndex.exit.thread ], [ 0, %.lr.ph ]
  %31 = add nsw i32 %.in, -1
  %32 = getelementptr inbounds i8, ptr %.045, i64 8
  %33 = load i32, ptr %32, align 8
  %34 = load i32, ptr %24, align 4
  %35 = load i32, ptr %26, align 4
  %36 = icmp slt i32 %34, %35
  br i1 %36, label %.lr.ph.i, label %stiLineTableIndex.exit.thread

.lr.ph.i:                                         ; preds = %.lr.ph.split
  %37 = sext i32 %34 to i64
  br label %38

38:                                               ; preds = %44, %.lr.ph.i
  %indvars.iv.i = phi i64 [ %37, %.lr.ph.i ], [ %indvars.iv.next.i, %44 ]
  %39 = getelementptr inbounds %struct.LineTableRecord, ptr %27, i64 %indvars.iv.i
  %40 = load i32, ptr %39, align 4
  %.not.i = icmp sgt i32 %40, %33
  br i1 %.not.i, label %44, label %41

41:                                               ; preds = %38
  %42 = getelementptr inbounds i8, ptr %39, i64 4
  %43 = load i32, ptr %42, align 4
  %.not14.i = icmp slt i32 %43, %33
  br i1 %.not14.i, label %44, label %stiLineTableIndex.exit

44:                                               ; preds = %41, %38
  %indvars.iv.next.i = add nsw i64 %indvars.iv.i, 1
  %lftr.wideiv.i = trunc i64 %indvars.iv.next.i to i32
  %exitcond.not.i = icmp eq i32 %35, %lftr.wideiv.i
  br i1 %exitcond.not.i, label %stiLineTableIndex.exit.thread, label %38, !llvm.loop !12

stiLineTableIndex.exit:                           ; preds = %41
  %45 = icmp sgt i64 %indvars.iv.i, -1
  br i1 %45, label %46, label %stiLineTableIndex.exit.thread

46:                                               ; preds = %stiLineTableIndex.exit
  %47 = and i64 %indvars.iv.i, 4294967295
  %48 = getelementptr inbounds %struct.LineTableRecord, ptr %27, i64 %47, i32 5
  %49 = load i32, ptr %48, align 4
  %50 = getelementptr inbounds %struct.LineTableRecord, ptr %27, i64 %47
  %51 = getelementptr inbounds i8, ptr %50, i64 12
  %52 = load i32, ptr %51, align 4
  %53 = load i32, ptr %50, align 4
  %54 = sub nsw i32 %33, %53
  %55 = getelementptr inbounds i8, ptr %50, i64 8
  %56 = load i32, ptr %55, align 4
  %57 = sdiv i32 %54, %56
  %58 = shl i32 %49, 16
  %59 = add i32 %58, %52
  %60 = add i32 %59, %57
  %.not40 = icmp eq i32 %60, %.03343
  br i1 %.not40, label %stiLineTableIndex.exit.thread, label %61

61:                                               ; preds = %46
  %62 = load i64, ptr %.045, align 8
  store i64 %62, ptr %.03144, align 8
  %63 = getelementptr inbounds i8, ptr %.03144, i64 8
  store i32 %60, ptr %63, align 8
  %64 = getelementptr inbounds i8, ptr %.03144, i64 16
  br label %stiLineTableIndex.exit.thread

stiLineTableIndex.exit.thread:                    ; preds = %44, %.lr.ph.split, %stiLineTableIndex.exit, %61, %46
  %.134 = phi i32 [ %60, %61 ], [ %.03343, %46 ], [ %.03343, %stiLineTableIndex.exit ], [ %.03343, %.lr.ph.split ], [ %.03343, %44 ]
  %.1 = phi ptr [ %64, %61 ], [ %.03144, %46 ], [ %.03144, %stiLineTableIndex.exit ], [ %.03144, %.lr.ph.split ], [ %.03144, %44 ]
  %65 = getelementptr inbounds i8, ptr %.045, i64 16
  %66 = icmp sgt i32 %.in, 1
  br i1 %66, label %.lr.ph.split, label %._crit_edge, !llvm.loop !13

._crit_edge:                                      ; preds = %stiLineTableIndex.exit.thread, %.lr.ph, %21
  %.031.lcssa = phi ptr [ %5, %21 ], [ %5, %.lr.ph ], [ %.1, %stiLineTableIndex.exit.thread ]
  %67 = load ptr, ptr %3, align 8
  %68 = ptrtoint ptr %.031.lcssa to i64
  %69 = ptrtoint ptr %67 to i64
  %70 = sub i64 %68, %69
  %71 = lshr exact i64 %70, 4
  %72 = trunc i64 %71 to i32
  store i32 %72, ptr %2, align 4
  br label %73

73:                                               ; preds = %9, %8, %4, %._crit_edge
  ret void
}